(dp0
S'DIV'
p1
(cdatetime
datetime
p2
(S'\x07\xe3\x0c\x10\x10\x1a;\x06\xdf*'
p3
tp4
Rp5
(dp6
I2016
F40.0
sI2017
F56.0
sI2018
F114.0
sI2019
F115.0
sI2000
F5.0
sI2001
F40.0
sI2002
F40.0
sI2003
F60.0
sI2004
F40.0
sI2005
F40.0
sI2006
F50.0
sI2007
F75.0
sI2008
F60.0
sI2009
F50.0
sI2010
F25.0
sI2011
F30.0
sI2012
F20.0
sI2013
F25.0
sI2014
F30.0
sI2015
F35.0
stp7
sS'RATIOS'
p8
(g2
(S'\x07\xe3\x0c\x10\x10\x1b\x01\n\xd1\x97'
p9
tp10
Rp11
(dp12
S'2015'
p13
(dp14
S'Book Value[ExclRevalReserve]/Share (Rs.)'
p15
V49.66
p16
sS'Net Profit/Share (Rs.)'
p17
V5.13
p18
sS'Net Profit Margin (%)'
p19
V17.90
p20
sS'Earnings Retention Ratio (%)'
p21
V65.89
p22
sS'PBDIT/Share (Rs.)'
p23
V9.23
p24
sS'Price/Net Operating Revenue'
p25
V1.63
p26
sS'PBIT Margin (%)'
p27
V26.61
p28
sS'Basic EPS (Rs.)'
p29
V5.13
p30
sS'PBDIT Margin (%)'
p31
V32.21
p32
sS'Return on Networth/Equity (%)'
p33
V10.32
p34
sS'Diluted EPS (Rs.)'
p35
V5.13
p36
sS'NP After MI And SOA Margin (%)'
p37
V17.90
p38
sS'Book Value[InclRevalReserve]/Share (Rs.)'
p39
V49.66
p40
sS'Cash EPS (Rs.)'
p41
V6.73
p42
sS'Return on Assets (%)'
p43
V8.17
p44
sS'PBIT/Share (Rs.)'
p45
V7.62
p46
sS'Current Ratio (X)'
p47
V3.92
p48
sS'Earnings Yield'
p49
V0.11
p50
sS'Quick Ratio (X)'
p51
V3.33
p52
sS'PBT Margin (%)'
p53
V28.62
p54
sS'Interest Coverage Ratios (Post Tax) (%)'
p55
F0.0
sS'Dividend  Payout Ratio (NP) (%)'
p56
V34.11
p57
sS'EV/EBITDA (X)'
p58
V3.11
p59
sS'Interest Coverage Ratios (%)'
p60
F0.0
sS'Inventory Turnover Ratio (X)'
p61
V6.33
p62
sS'Enterprise Value (Cr.)'
p63
V7394.03
p64
sS'Dividend Payout Ratio (CP) (%)'
p65
V25.98
p66
sS'PBT/Share (Rs.)'
p67
V8.20
p68
sS'Price/BV (X)'
p69
V0.94
p70
sS'MarketCap/Net Operating Revenue (X)'
p71
V1.63
p72
sS'Asset Turnover Ratio (%)'
p73
V45.63
p74
sS'Total Debt/Equity (X)'
p75
V0.00
p76
sS'Return on Capital Employed (%)'
p77
V9.30
p78
sS'NP After MI And SOA / Share (Rs.)'
p79
V5.13
p80
sS'Retention Ratios (%)'
p81
V65.88
p82
sS'Cash Earnings Retention Ratio (%)'
p83
V74.02
p84
sS'EV/Net Operating Revenue (X)'
p85
V1.00
p86
sS'Revenue from Operations/Share (Rs.)'
p87
V28.65
p88
ssS'2017'
p89
(dp90
g15
V52.80
p91
sg17
V3.46
p92
sg19
V8.86
p93
sg21
V18.95
p94
sg23
V7.70
p95
sg25
V1.95
p96
sg27
V13.35
p97
sg29
V2.97
p98
sg31
V19.72
p99
sg33
V6.54
p100
sg35
V2.97
p101
sg37
V8.85
p102
sg39
V52.80
p103
sg41
V5.94
p104
sg43
V4.60
p105
sg45
V5.21
p106
sg47
V2.13
p107
sg49
V0.05
p108
sg51
V1.70
p109
sg53
V12.78
p110
sg55
V374.56
p111
sg56
V81.05
p112
sg58
V8.37
p113
sg60
V374.56
p114
sg61
V6.53
p115
sg63
V12454.05
p116
sg65
V47.14
p117
sg67
V4.99
p118
sg69
V1.44
p119
sg71
V1.95
p120
sg73
V52.01
p121
sg75
V0.01
p122
sg77
V8.50
p123
sg79
V3.45
p124
sg81
V18.94
p125
sg83
V52.86
p126
sg85
V1.65
p127
sg87
V39.02
p128
ssS'2016'
p129
(dp130
g15
V51.20
p131
sg17
V3.05
p132
sg19
V11.54
p133
sg21
V59.08
p134
sg23
V6.07
p135
sg25
V1.50
p136
sg27
V16.70
p137
sg29
V3.05
p138
sg31
V22.95
p139
sg33
V5.96
p140
sg35
V3.05
p141
sg37
V11.54
p142
sg39
V51.20
p143
sg41
V4.71
p144
sg43
V4.71
p145
sg45
V4.42
p146
sg47
V3.71
p147
sg49
V0.08
p148
sg51
V3.17
p149
sg53
V17.43
p150
sg55
V348.16
p151
sg56
V40.92
p152
sg58
V3.27
p153
sg60
V348.16
p154
sg61
V6.46
p155
sg63
V5115.61
p156
sg65
V26.55
p157
sg67
V4.61
p158
sg69
V0.77
p159
sg71
V1.50
p160
sg73
V40.79
p161
sg75
V0.00
p162
sg77
V5.34
p163
sg79
V3.05
p164
sg81
V59.07
p165
sg83
V73.45
p166
sg85
V0.75
p167
sg87
V26.45
p168
ssS'2019'
p169
(dp170
g15
V56.20
p171
sg17
V9.29
p172
sg19
V15.06
p173
sg21
V51.58
p174
sg23
V17.25
p175
sg25
V0.90
p176
sg27
V23.84
p177
sg29
V9.07
p178
sg31
V27.98
p179
sg33
V16.53
p180
sg35
V9.07
p181
sg37
V15.07
p182
sg39
V56.20
p183
sg41
V11.84
p184
sg43
V11.44
p185
sg45
V14.70
p186
sg47
V1.93
p187
sg49
V0.17
p188
sg51
V1.51
p189
sg53
V23.82
p190
sg55
V1152.23
p191
sg56
V48.42
p192
sg58
V2.15
p193
sg60
V1152.23
p194
sg61
V9.50
p195
sg63
V6905.97
p196
sg65
V37.99
p197
sg67
V14.69
p198
sg69
V0.99
p199
sg71
V0.90
p200
sg73
V75.91
p201
sg75
V0.01
p202
sg77
V22.40
p203
sg79
V9.29
p204
sg81
V51.57
p205
sg83
V62.01
p206
sg85
V0.60
p207
sg87
V61.64
p208
ssS'2018'
p209
(dp210
g15
V54.34
p211
sg17
V6.94
p212
sg19
V14.11
p213
sg21
V32.32
p214
sg23
V8.78
p215
sg25
V1.36
p216
sg27
V12.79
p217
sg29
V6.94
p218
sg31
V17.84
p219
sg33
V12.77
p220
sg35
V6.94
p221
sg37
V14.11
p222
sg39
V54.34
p223
sg41
V9.43
p224
sg43
V9.18
p225
sg45
V6.29
p226
sg47
V2.30
p227
sg49
V0.10
p228
sg51
V1.81
p229
sg53
V21.44
p230
sg55
V623.95
p231
sg56
V67.68
p232
sg58
V6.00
p233
sg60
V623.95
p234
sg61
V7.96
p235
sg63
V10178.28
p236
sg65
V49.84
p237
sg67
V10.55
p238
sg69
V1.23
p239
sg71
V1.36
p240
sg73
V65.07
p241
sg75
V0.00
p242
sg77
V9.99
p243
sg79
V6.94
p244
sg81
V32.31
p245
sg83
V50.16
p246
sg85
V1.07
p247
sg87
V49.20
p248
sstp249
s.